target datalayout = "e-m:e-p270:32:32-p271:32:32-p272:64:64-i64:64-i128:128-f80:128-n8:16:32:64-S128"
target triple = "x86_64-pc-linux-gnu"

; Function Attrs: nounwind uwtable
define dso_local i32 @trimDoubleString(ptr noundef %0, i64 noundef %1) #0 {
  %3 = alloca ptr, align 8
  %4 = alloca i64, align 8
  %5 = alloca ptr, align 8
  store ptr %0, ptr %3, align 8, !tbaa !5
  store i64 %1, ptr %4, align 8, !tbaa !29
  %6 = load ptr, ptr %3, align 8, !tbaa !5
  %7 = call ptr @strchr(ptr noundef %6, i32 noundef 46) #15
  %8 = icmp ne ptr %7, null
  br i1 %8, label %9, label %33

9:                                                ; preds = %2
  call void @llvm.lifetime.start.p0(i64 8, ptr %5) #13
  %10 = load ptr, ptr %3, align 8, !tbaa !5
  %11 = load i64, ptr %4, align 8, !tbaa !29
  %12 = getelementptr inbounds nuw i8, ptr %10, i64 %11
  %13 = getelementptr inbounds i8, ptr %12, i64 -1
  store ptr %13, ptr %5, align 8, !tbaa !5
  br label %14

14:                                               ; preds = %19, %9
  %15 = load ptr, ptr %5, align 8, !tbaa !5
  %16 = load i8, ptr %15, align 1, !tbaa !12
  %17 = sext i8 %16 to i32
  %18 = icmp eq i32 %17, 48
  br i1 %18, label %19, label %24

19:                                               ; preds = %14
  %20 = load ptr, ptr %5, align 8, !tbaa !5
  %21 = getelementptr inbounds i8, ptr %20, i32 -1
  store ptr %21, ptr %5, align 8, !tbaa !5
  %22 = load i64, ptr %4, align 8, !tbaa !29
  %23 = add i64 %22, -1
  store i64 %23, ptr %4, align 8, !tbaa !29
  br label %14, !llvm.loop !53

24:                                               ; preds = %14
  %25 = load ptr, ptr %5, align 8, !tbaa !5
  %26 = load i8, ptr %25, align 1, !tbaa !12
  %27 = sext i8 %26 to i32
  %28 = icmp eq i32 %27, 46
  br i1 %28, label %29, label %32

29:                                               ; preds = %24
  %30 = load i64, ptr %4, align 8, !tbaa !29
  %31 = add i64 %30, -1
  store i64 %31, ptr %4, align 8, !tbaa !29
  br label %32

32:                                               ; preds = %29, %24
  call void @llvm.lifetime.end.p0(i64 8, ptr %5) #13
  br label %33

33:                                               ; preds = %32, %2
  %34 = load ptr, ptr %3, align 8, !tbaa !5
  %35 = load i64, ptr %4, align 8, !tbaa !29
  %36 = getelementptr inbounds nuw i8, ptr %34, i64 %35
  store i8 0, ptr %36, align 1, !tbaa !12
  %37 = load i64, ptr %4, align 8, !tbaa !29
  %38 = trunc i64 %37 to i32
  ret i32 %38
}