; Function Attrs: nofree nounwind memory(argmem: readwrite) uwtable
define dso_local i32 @trimDoubleString(ptr noundef %0, i64 noundef %1) local_unnamed_addr #21 {
  %3 = tail call ptr @strchr(ptr noundef nonnull dereferenceable(1) %0, i32 noundef 46) #31
  %.not = icmp eq ptr %3, null
  br i1 %.not, label %.loopexit, label %4

4:                                                ; preds = %2
  %5 = getelementptr inbounds nuw i8, ptr %0, i64 %1
  br label %6

6:                                                ; preds = %8, %4
  %.1 = phi i64 [ %1, %4 ], [ %9, %8 ]
  %.pn = phi ptr [ %5, %4 ], [ %.0, %8 ]
  %.0 = getelementptr inbounds i8, ptr %.pn, i64 -1
  %7 = load i8, ptr %.0, align 1, !tbaa !9
  switch i8 %7, label %.loopexit [
    i8 48, label %8
    i8 46, label %10
  ]

8:                                                ; preds = %6
  %9 = add i64 %.1, -1
  br label %6, !llvm.loop !45

10:                                               ; preds = %6
  %11 = add i64 %.1, -1
  br label %.loopexit

.loopexit:                                        ; preds = %6, %10, %2
  %.010 = phi i64 [ %1, %2 ], [ %11, %10 ], [ %.1, %6 ]
  %12 = getelementptr inbounds nuw i8, ptr %0, i64 %.010
  store i8 0, ptr %12, align 1, !tbaa !9
  %13 = trunc i64 %.010 to i32
  ret i32 %13
}